target datalayout = "e-m:e-p270:32:32-p271:32:32-p272:64:64-i64:64-i128:128-f80:128-n8:16:32:64-S128"
target triple = "x86_64-pc-linux-gnu"

%"class.boost::log::v2_mt_posix::attribute_value_set" = type { ptr }
%"struct.boost::log::v2_mt_posix::attribute_value_set::implementation" = type { ptr, ptr, ptr, %"class.boost::intrusive::list", ptr, ptr, [16 x %"struct.boost::log::v2_mt_posix::attribute_value_set::implementation::bucket"] }
%"class.boost::intrusive::list" = type { %"class.boost::intrusive::list_impl" }
%"class.boost::intrusive::list_impl" = type { %"struct.boost::intrusive::list_impl<boost::intrusive::derivation_value_traits<boost::log::v2_mt_posix::attribute_value_set::node, boost::log::v2_mt_posix::attribute_value_set::implementation::node_traits, boost::intrusive::normal_link>, unsigned long, true, void>::data_t" }
%"struct.boost::intrusive::list_impl<boost::intrusive::derivation_value_traits<boost::log::v2_mt_posix::attribute_value_set::node, boost::log::v2_mt_posix::attribute_value_set::implementation::node_traits, boost::intrusive::normal_link>, unsigned long, true, void>::data_t" = type { %"struct.boost::intrusive::list_impl<boost::intrusive::derivation_value_traits<boost::log::v2_mt_posix::attribute_value_set::node, boost::log::v2_mt_posix::attribute_value_set::implementation::node_traits, boost::intrusive::normal_link>, unsigned long, true, void>::root_plus_size" }
%"struct.boost::intrusive::list_impl<boost::intrusive::derivation_value_traits<boost::log::v2_mt_posix::attribute_value_set::node, boost::log::v2_mt_posix::attribute_value_set::implementation::node_traits, boost::intrusive::normal_link>, unsigned long, true, void>::root_plus_size" = type { %"struct.boost::intrusive::detail::size_holder", %"struct.boost::intrusive::detail::default_header_holder" }
%"struct.boost::intrusive::detail::size_holder" = type { i64 }
%"struct.boost::intrusive::detail::default_header_holder" = type { %"struct.boost::log::v2_mt_posix::attribute_value_set::node_base" }
%"struct.boost::log::v2_mt_posix::attribute_value_set::node_base" = type { ptr, ptr }
%"struct.boost::log::v2_mt_posix::attribute_value_set::implementation::bucket" = type { ptr, ptr }
%"class.boost::log::v2_mt_posix::attribute_value_set::const_iterator" = type { ptr, ptr }
%"class.boost::intrusive::list_iterator" = type { %"struct.boost::intrusive::iiterator_members" }
%"struct.boost::intrusive::iiterator_members" = type { ptr }

; Function Attrs: inlinehint mustprogress nounwind uwtable
define linkonce_odr hidden noundef ptr @_ZN5boost11move_detail9addressofINS_3log11v2_mt_posix19attribute_value_set9node_baseEEEPT_RS6_(ptr noundef nonnull align 8 dereferenceable(16) %0) #2 comdat {
  %2 = alloca ptr, align 8
  store ptr %0, ptr %2, align 8, !tbaa !3
  %3 = load ptr, ptr %2, align 8, !tbaa !3
  ret ptr %3
}

; Function Attrs: inlinehint mustprogress nounwind uwtable
define linkonce_odr hidden noundef ptr @_ZN5boost11move_detail9addressofIKNS_9intrusive23derivation_value_traitsINS_3log11v2_mt_posix19attribute_value_set4nodeENS6_14implementation11node_traitsELNS2_14link_mode_typeE0EEEEEPT_RSD_(ptr noundef nonnull align 1 dereferenceable(1) %0) #2 comdat {
  %2 = alloca ptr, align 8
  store ptr %0, ptr %2, align 8, !tbaa !3
  %3 = load ptr, ptr %2, align 8, !tbaa !3
  ret ptr %3
}

; Function Attrs: inlinehint mustprogress nounwind uwtable
define linkonce_odr hidden noundef ptr @_ZN5boost9intrusive14pointer_traitsIPNS_3log11v2_mt_posix19attribute_value_set9node_baseEE10pointer_toERS5_(ptr noundef nonnull align 8 dereferenceable(16) %0) #2 comdat align 2 {
  %2 = alloca ptr, align 8
  store ptr %0, ptr %2, align 8, !tbaa !3
  %3 = load ptr, ptr %2, align 8, !tbaa !3
  %4 = call noundef ptr @_ZN5boost11move_detail9addressofINS_3log11v2_mt_posix19attribute_value_set9node_baseEEEPT_RS6_(ptr noundef nonnull align 8 dereferenceable(16) %3) #14
  ret ptr %4
}

; Function Attrs: inlinehint mustprogress nounwind uwtable
define linkonce_odr hidden void @_ZN5boost9intrusive17iiterator_membersIPNS_3log11v2_mt_posix19attribute_value_set9node_baseEPKNS0_23derivation_value_traitsINS4_4nodeENS4_14implementation11node_traitsELNS0_14link_mode_typeE0EEELb0EEC2ERKS6_RKSE_(ptr noundef nonnull align 8 dereferenceable(8) %0, ptr noundef nonnull align 8 dereferenceable(8) %1, ptr noundef nonnull align 8 dereferenceable(8) %2) unnamed_addr #2 comdat align 2 {
  %4 = alloca ptr, align 8
  %5 = alloca ptr, align 8
  %6 = alloca ptr, align 8
  store ptr %0, ptr %4, align 8, !tbaa !3
  store ptr %1, ptr %5, align 8, !tbaa !3
  store ptr %2, ptr %6, align 8, !tbaa !3
  %7 = load ptr, ptr %4, align 8
  %8 = getelementptr inbounds nuw %"struct.boost::intrusive::iiterator_members", ptr %7, i32 0, i32 0
  %9 = load ptr, ptr %5, align 8, !tbaa !3
  %10 = load ptr, ptr %9, align 8, !tbaa !3
  store ptr %10, ptr %8, align 8, !tbaa !61
  ret void
}

; Function Attrs: inlinehint mustprogress nounwind uwtable
define linkonce_odr hidden noundef ptr @_ZN5boost9intrusive14pointer_traitsIPKNS0_23derivation_value_traitsINS_3log11v2_mt_posix19attribute_value_set4nodeENS5_14implementation11node_traitsELNS0_14link_mode_typeE0EEEE10pointer_toERSB_(ptr noundef nonnull align 1 dereferenceable(1) %0) #2 comdat align 2 {
  %2 = alloca ptr, align 8
  store ptr %0, ptr %2, align 8, !tbaa !3
  %3 = load ptr, ptr %2, align 8, !tbaa !3
  %4 = call noundef ptr @_ZN5boost11move_detail9addressofIKNS_9intrusive23derivation_value_traitsINS_3log11v2_mt_posix19attribute_value_set4nodeENS6_14implementation11node_traitsELNS2_14link_mode_typeE0EEEEEPT_RSD_(ptr noundef nonnull align 1 dereferenceable(1) %3) #14
  ret ptr %4
}

; Function Attrs: inlinehint mustprogress nounwind uwtable
define linkonce_odr hidden noundef nonnull align 1 dereferenceable(1) ptr @_ZNK5boost9intrusive9list_implINS0_23derivation_value_traitsINS_3log11v2_mt_posix19attribute_value_set4nodeENS5_14implementation11node_traitsELNS0_14link_mode_typeE0EEEmLb1EvE17priv_value_traitsEv(ptr noundef nonnull align 8 dereferenceable(24) %0) #2 comdat align 2 {
  %2 = alloca ptr, align 8
  store ptr %0, ptr %2, align 8, !tbaa !3
  %3 = load ptr, ptr %2, align 8
  %4 = getelementptr inbounds nuw %"class.boost::intrusive::list_impl", ptr %3, i32 0, i32 0
  ret ptr %4
}

; Function Attrs: inlinehint mustprogress nounwind uwtable
define linkonce_odr hidden noundef ptr @_ZN5boost9intrusive6detail21default_header_holderINS_3log11v2_mt_posix19attribute_value_set14implementation11node_traitsEE8get_nodeEv(ptr noundef nonnull align 8 dereferenceable(16) %0) #2 comdat align 2 {
  %2 = alloca ptr, align 8
  store ptr %0, ptr %2, align 8, !tbaa !3
  %3 = load ptr, ptr %2, align 8
  %4 = call noundef ptr @_ZN5boost9intrusive14pointer_traitsIPNS_3log11v2_mt_posix19attribute_value_set9node_baseEE10pointer_toERS5_(ptr noundef nonnull align 8 dereferenceable(16) %3) #14
  ret ptr %4
}

; Function Attrs: noinline noreturn nounwind uwtable
define linkonce_odr hidden void @__clang_call_terminate(ptr noundef %0) #3 comdat {
  %2 = call ptr @__cxa_begin_catch(ptr %0) #14
  call void @_ZSt9terminatev() #15
  unreachable
}

; Function Attrs: inlinehint mustprogress uwtable
define linkonce_odr hidden void @_ZN5boost9intrusive13list_iteratorINS0_23derivation_value_traitsINS_3log11v2_mt_posix19attribute_value_set4nodeENS5_14implementation11node_traitsELNS0_14link_mode_typeE0EEELb0EEC2EPNS5_9node_baseEPKSA_(ptr noundef nonnull align 8 dereferenceable(8) %0, ptr noundef %1, ptr noundef %2) unnamed_addr #8 comdat align 2 {
  %4 = alloca ptr, align 8
  %5 = alloca ptr, align 8
  %6 = alloca ptr, align 8
  store ptr %0, ptr %4, align 8, !tbaa !3
  store ptr %1, ptr %5, align 8, !tbaa !3
  store ptr %2, ptr %6, align 8, !tbaa !3
  %7 = load ptr, ptr %4, align 8
  %8 = getelementptr inbounds nuw %"class.boost::intrusive::list_iterator", ptr %7, i32 0, i32 0
  call void @_ZN5boost9intrusive17iiterator_membersIPNS_3log11v2_mt_posix19attribute_value_set9node_baseEPKNS0_23derivation_value_traitsINS4_4nodeENS4_14implementation11node_traitsELNS0_14link_mode_typeE0EEELb0EEC2ERKS6_RKSE_(ptr noundef nonnull align 8 dereferenceable(8) %8, ptr noundef nonnull align 8 dereferenceable(8) %5, ptr noundef nonnull align 8 dereferenceable(8) %6)
  ret void
}

; Function Attrs: inlinehint mustprogress nounwind uwtable
define linkonce_odr hidden noundef ptr @_ZNK5boost9intrusive9list_implINS0_23derivation_value_traitsINS_3log11v2_mt_posix19attribute_value_set4nodeENS5_14implementation11node_traitsELNS0_14link_mode_typeE0EEEmLb1EvE21priv_value_traits_ptrEv(ptr noundef nonnull align 8 dereferenceable(24) %0) #2 comdat align 2 {
  %2 = alloca ptr, align 8
  store ptr %0, ptr %2, align 8, !tbaa !3
  %3 = load ptr, ptr %2, align 8
  %4 = call noundef nonnull align 1 dereferenceable(1) ptr @_ZNK5boost9intrusive9list_implINS0_23derivation_value_traitsINS_3log11v2_mt_posix19attribute_value_set4nodeENS5_14implementation11node_traitsELNS0_14link_mode_typeE0EEEmLb1EvE17priv_value_traitsEv(ptr noundef nonnull align 8 dereferenceable(24) %3) #14
  %5 = call noundef ptr @_ZN5boost9intrusive14pointer_traitsIPKNS0_23derivation_value_traitsINS_3log11v2_mt_posix19attribute_value_set4nodeENS5_14implementation11node_traitsELNS0_14link_mode_typeE0EEEE10pointer_toERSB_(ptr noundef nonnull align 1 dereferenceable(1) %4) #14
  ret ptr %5
}

; Function Attrs: mustprogress nounwind uwtable
define linkonce_odr hidden noundef ptr @_ZN5boost3log11v2_mt_posix19attribute_value_set14implementation11node_traits8get_nextEPKNS2_9node_baseE(ptr noundef %0) #1 comdat align 2 {
  %2 = alloca ptr, align 8
  store ptr %0, ptr %2, align 8, !tbaa !3
  %3 = load ptr, ptr %2, align 8, !tbaa !3
  %4 = getelementptr inbounds nuw %"struct.boost::log::v2_mt_posix::attribute_value_set::node_base", ptr %3, i32 0, i32 1
  %5 = load ptr, ptr %4, align 8, !tbaa !48
  ret ptr %5
}

; Function Attrs: inlinehint mustprogress uwtable
define linkonce_odr hidden noundef ptr @_ZN5boost9intrusive9list_implINS0_23derivation_value_traitsINS_3log11v2_mt_posix19attribute_value_set4nodeENS5_14implementation11node_traitsELNS0_14link_mode_typeE0EEEmLb1EvE13get_root_nodeEv(ptr noundef nonnull align 8 dereferenceable(24) %0) #8 comdat align 2 {
  %2 = alloca ptr, align 8
  store ptr %0, ptr %2, align 8, !tbaa !3
  %3 = load ptr, ptr %2, align 8
  %4 = getelementptr inbounds nuw %"class.boost::intrusive::list_impl", ptr %3, i32 0, i32 0
  %5 = getelementptr inbounds nuw %"struct.boost::intrusive::list_impl<boost::intrusive::derivation_value_traits<boost::log::v2_mt_posix::attribute_value_set::node, boost::log::v2_mt_posix::attribute_value_set::implementation::node_traits, boost::intrusive::normal_link>, unsigned long, true, void>::data_t", ptr %4, i32 0, i32 0
  %6 = getelementptr inbounds nuw %"struct.boost::intrusive::list_impl<boost::intrusive::derivation_value_traits<boost::log::v2_mt_posix::attribute_value_set::node, boost::log::v2_mt_posix::attribute_value_set::implementation::node_traits, boost::intrusive::normal_link>, unsigned long, true, void>::root_plus_size", ptr %5, i32 0, i32 1
  %7 = call noundef ptr @_ZN5boost9intrusive6detail21default_header_holderINS_3log11v2_mt_posix19attribute_value_set14implementation11node_traitsEE8get_nodeEv(ptr noundef nonnull align 8 dereferenceable(16) %6)
  ret ptr %7
}

; Function Attrs: inlinehint mustprogress nounwind uwtable
define linkonce_odr hidden noundef ptr @_ZNK5boost9intrusive13list_iteratorINS0_23derivation_value_traitsINS_3log11v2_mt_posix19attribute_value_set4nodeENS5_14implementation11node_traitsELNS0_14link_mode_typeE0EEELb0EE12pointed_nodeEv(ptr noundef nonnull align 8 dereferenceable(8) %0) #2 comdat align 2 {
  %2 = alloca ptr, align 8
  store ptr %0, ptr %2, align 8, !tbaa !3
  %3 = load ptr, ptr %2, align 8
  %4 = getelementptr inbounds nuw %"class.boost::intrusive::list_iterator", ptr %3, i32 0, i32 0
  %5 = getelementptr inbounds nuw %"struct.boost::intrusive::iiterator_members", ptr %4, i32 0, i32 0
  %6 = load ptr, ptr %5, align 8, !tbaa !58
  ret ptr %6
}

; Function Attrs: inlinehint mustprogress nounwind uwtable
define linkonce_odr hidden void @_ZN5boost9intrusive9list_implINS0_23derivation_value_traitsINS_3log11v2_mt_posix19attribute_value_set4nodeENS5_14implementation11node_traitsELNS0_14link_mode_typeE0EEEmLb1EvE5beginEv(ptr dead_on_unwind noalias writable sret(%"class.boost::intrusive::list_iterator") align 8 %0, ptr noundef nonnull align 8 dereferenceable(24) %1) #2 comdat align 2 personality ptr @__gxx_personality_v0 {
  %3 = alloca ptr, align 8
  %4 = alloca ptr, align 8
  store ptr %0, ptr %3, align 8
  store ptr %1, ptr %4, align 8, !tbaa !3
  %5 = load ptr, ptr %4, align 8
  %6 = invoke noundef ptr @_ZN5boost9intrusive9list_implINS0_23derivation_value_traitsINS_3log11v2_mt_posix19attribute_value_set4nodeENS5_14implementation11node_traitsELNS0_14link_mode_typeE0EEEmLb1EvE13get_root_nodeEv(ptr noundef nonnull align 8 dereferenceable(24) %5)
          to label %7 unwind label %12

7:                                                ; preds = %2
  %8 = invoke noundef ptr @_ZN5boost3log11v2_mt_posix19attribute_value_set14implementation11node_traits8get_nextEPKNS2_9node_baseE(ptr noundef %6)
          to label %9 unwind label %12

9:                                                ; preds = %7
  %10 = call noundef ptr @_ZNK5boost9intrusive9list_implINS0_23derivation_value_traitsINS_3log11v2_mt_posix19attribute_value_set4nodeENS5_14implementation11node_traitsELNS0_14link_mode_typeE0EEEmLb1EvE21priv_value_traits_ptrEv(ptr noundef nonnull align 8 dereferenceable(24) %5) #14
  invoke void @_ZN5boost9intrusive13list_iteratorINS0_23derivation_value_traitsINS_3log11v2_mt_posix19attribute_value_set4nodeENS5_14implementation11node_traitsELNS0_14link_mode_typeE0EEELb0EEC2EPNS5_9node_baseEPKSA_(ptr noundef nonnull align 8 dereferenceable(8) %0, ptr noundef %8, ptr noundef %10)
          to label %11 unwind label %12

11:                                               ; preds = %9
  ret void

12:                                               ; preds = %9, %7, %2
  %13 = landingpad { ptr, i32 }
          catch ptr null
  %14 = extractvalue { ptr, i32 } %13, 0
  call void @__clang_call_terminate(ptr %14) #15
  unreachable
}

; Function Attrs: mustprogress uwtable
define linkonce_odr hidden void @_ZN5boost3log11v2_mt_posix19attribute_value_set14implementation6freezeEv(ptr noundef nonnull align 8 dereferenceable(320) %0) #0 comdat align 2 {
  %2 = alloca ptr, align 8
  store ptr %0, ptr %2, align 8, !tbaa !3
  %3 = load ptr, ptr %2, align 8
  %4 = getelementptr inbounds nuw %"struct.boost::log::v2_mt_posix::attribute_value_set::implementation", ptr %3, i32 0, i32 0
  %5 = load ptr, ptr %4, align 8, !tbaa !32
  %6 = icmp ne ptr %5, null
  br i1 %6, label %7, label %11

7:                                                ; preds = %1
  %8 = getelementptr inbounds nuw %"struct.boost::log::v2_mt_posix::attribute_value_set::implementation", ptr %3, i32 0, i32 0
  %9 = load ptr, ptr %8, align 8, !tbaa !32
  call void @_ZN5boost3log11v2_mt_posix19attribute_value_set14implementation17freeze_nodes_fromEPNS1_13attribute_set14implementationE(ptr noundef nonnull align 8 dereferenceable(320) %3, ptr noundef %9)
  %10 = getelementptr inbounds nuw %"struct.boost::log::v2_mt_posix::attribute_value_set::implementation", ptr %3, i32 0, i32 0
  store ptr null, ptr %10, align 8, !tbaa !32
  br label %11

11:                                               ; preds = %7, %1
  %12 = getelementptr inbounds nuw %"struct.boost::log::v2_mt_posix::attribute_value_set::implementation", ptr %3, i32 0, i32 1
  %13 = load ptr, ptr %12, align 8, !tbaa !13
  %14 = icmp ne ptr %13, null
  br i1 %14, label %15, label %19

15:                                               ; preds = %11
  %16 = getelementptr inbounds nuw %"struct.boost::log::v2_mt_posix::attribute_value_set::implementation", ptr %3, i32 0, i32 1
  %17 = load ptr, ptr %16, align 8, !tbaa !13
  call void @_ZN5boost3log11v2_mt_posix19attribute_value_set14implementation17freeze_nodes_fromEPNS1_13attribute_set14implementationE(ptr noundef nonnull align 8 dereferenceable(320) %3, ptr noundef %17)
  %18 = getelementptr inbounds nuw %"struct.boost::log::v2_mt_posix::attribute_value_set::implementation", ptr %3, i32 0, i32 1
  store ptr null, ptr %18, align 8, !tbaa !13
  br label %19

19:                                               ; preds = %15, %11
  %20 = getelementptr inbounds nuw %"struct.boost::log::v2_mt_posix::attribute_value_set::implementation", ptr %3, i32 0, i32 2
  %21 = load ptr, ptr %20, align 8, !tbaa !22
  %22 = icmp ne ptr %21, null
  br i1 %22, label %23, label %27

23:                                               ; preds = %19
  %24 = getelementptr inbounds nuw %"struct.boost::log::v2_mt_posix::attribute_value_set::implementation", ptr %3, i32 0, i32 2
  %25 = load ptr, ptr %24, align 8, !tbaa !22
  call void @_ZN5boost3log11v2_mt_posix19attribute_value_set14implementation17freeze_nodes_fromEPNS1_13attribute_set14implementationE(ptr noundef nonnull align 8 dereferenceable(320) %3, ptr noundef %25)
  %26 = getelementptr inbounds nuw %"struct.boost::log::v2_mt_posix::attribute_value_set::implementation", ptr %3, i32 0, i32 2
  store ptr null, ptr %26, align 8, !tbaa !22
  br label %27

27:                                               ; preds = %23, %19
  ret void
}

; Function Attrs: mustprogress nounwind uwtable
define linkonce_odr hidden void @_ZN5boost3log11v2_mt_posix19attribute_value_set14const_iteratorC2EPNS2_9node_baseEPS2_(ptr noundef nonnull align 8 dereferenceable(16) %0, ptr noundef %1, ptr noundef %2) unnamed_addr #1 comdat align 2 {
  %4 = alloca ptr, align 8
  %5 = alloca ptr, align 8
  %6 = alloca ptr, align 8
  store ptr %0, ptr %4, align 8, !tbaa !3
  store ptr %1, ptr %5, align 8, !tbaa !3
  store ptr %2, ptr %6, align 8, !tbaa !3
  %7 = load ptr, ptr %4, align 8
  %8 = getelementptr inbounds nuw %"class.boost::log::v2_mt_posix::attribute_value_set::const_iterator", ptr %7, i32 0, i32 0
  %9 = load ptr, ptr %5, align 8, !tbaa !3
  store ptr %9, ptr %8, align 8, !tbaa !24
  %10 = getelementptr inbounds nuw %"class.boost::log::v2_mt_posix::attribute_value_set::const_iterator", ptr %7, i32 0, i32 1
  %11 = load ptr, ptr %6, align 8, !tbaa !3
  store ptr %11, ptr %10, align 8, !tbaa !26
  ret void
}

; Function Attrs: mustprogress uwtable
define linkonce_odr hidden noundef ptr @_ZN5boost3log11v2_mt_posix19attribute_value_set14implementation5beginEv(ptr noundef nonnull align 8 dereferenceable(320) %0) #0 comdat align 2 {
  %2 = alloca ptr, align 8
  %3 = alloca %"class.boost::intrusive::list_iterator", align 8
  store ptr %0, ptr %2, align 8, !tbaa !3
  %4 = load ptr, ptr %2, align 8
  call void @_ZN5boost3log11v2_mt_posix19attribute_value_set14implementation6freezeEv(ptr noundef nonnull align 8 dereferenceable(320) %4)
  call void @llvm.lifetime.start.p0(i64 8, ptr %3) #14
  %5 = getelementptr inbounds nuw %"struct.boost::log::v2_mt_posix::attribute_value_set::implementation", ptr %4, i32 0, i32 3
  call void @_ZN5boost9intrusive9list_implINS0_23derivation_value_traitsINS_3log11v2_mt_posix19attribute_value_set4nodeENS5_14implementation11node_traitsELNS0_14link_mode_typeE0EEEmLb1EvE5beginEv(ptr dead_on_unwind writable sret(%"class.boost::intrusive::list_iterator") align 8 %3, ptr noundef nonnull align 8 dereferenceable(24) %5) #14
  %6 = call noundef ptr @_ZNK5boost9intrusive13list_iteratorINS0_23derivation_value_traitsINS_3log11v2_mt_posix19attribute_value_set4nodeENS5_14implementation11node_traitsELNS0_14link_mode_typeE0EEELb0EE12pointed_nodeEv(ptr noundef nonnull align 8 dereferenceable(8) %3)
  call void @llvm.lifetime.end.p0(i64 8, ptr %3) #14
  ret ptr %6
}

; Function Attrs: mustprogress uwtable
define { ptr, ptr } @_ZNK5boost3log11v2_mt_posix19attribute_value_set5beginEv(ptr noundef nonnull align 8 dereferenceable(8) %0) #0 align 2 {
  %2 = alloca %"class.boost::log::v2_mt_posix::attribute_value_set::const_iterator", align 8
  %3 = alloca ptr, align 8
  store ptr %0, ptr %3, align 8, !tbaa !3
  %4 = load ptr, ptr %3, align 8
  %5 = getelementptr inbounds nuw %"class.boost::log::v2_mt_posix::attribute_value_set", ptr %4, i32 0, i32 0
  %6 = load ptr, ptr %5, align 8, !tbaa !9
  %7 = call noundef ptr @_ZN5boost3log11v2_mt_posix19attribute_value_set14implementation5beginEv(ptr noundef nonnull align 8 dereferenceable(320) %6)
  call void @_ZN5boost3log11v2_mt_posix19attribute_value_set14const_iteratorC2EPNS2_9node_baseEPS2_(ptr noundef nonnull align 8 dereferenceable(16) %2, ptr noundef %7, ptr noundef %4) #14
  %8 = load { ptr, ptr }, ptr %2, align 8
  ret { ptr, ptr } %8
}