; Function Attrs: mustprogress uwtable
define { ptr, ptr } @_ZNK5boost3log11v2_mt_posix19attribute_value_set5beginEv(ptr noundef nonnull align 8 dereferenceable(8) %0) local_unnamed_addr #0 align 2 personality ptr @__gxx_personality_v0 {
  %2 = load ptr, ptr %0, align 8, !tbaa !21
  %3 = load ptr, ptr %2, align 8, !tbaa !26
  %.not.i.i = icmp eq ptr %3, null
  br i1 %.not.i.i, label %5, label %4

4:                                                ; preds = %1
  tail call void @_ZN5boost3log11v2_mt_posix19attribute_value_set14implementation17freeze_nodes_fromEPNS1_13attribute_set14implementationE(ptr noundef nonnull align 8 dereferenceable(320) %2, ptr noundef nonnull %3)
  store ptr null, ptr %2, align 8, !tbaa !26
  br label %5

5:                                                ; preds = %4, %1
  %6 = getelementptr inbounds nuw i8, ptr %2, i64 8
  %7 = load ptr, ptr %6, align 8, !tbaa !27
  %.not3.i.i = icmp eq ptr %7, null
  br i1 %.not3.i.i, label %9, label %8

8:                                                ; preds = %5
  tail call void @_ZN5boost3log11v2_mt_posix19attribute_value_set14implementation17freeze_nodes_fromEPNS1_13attribute_set14implementationE(ptr noundef nonnull align 8 dereferenceable(320) %2, ptr noundef nonnull %7)
  store ptr null, ptr %6, align 8, !tbaa !27
  br label %9

9:                                                ; preds = %8, %5
  %10 = getelementptr inbounds nuw i8, ptr %2, i64 16
  %11 = load ptr, ptr %10, align 8, !tbaa !28
  %.not4.i.i = icmp eq ptr %11, null
  br i1 %.not4.i.i, label %_ZN5boost3log11v2_mt_posix19attribute_value_set14implementation5beginEv.exit, label %12

12:                                               ; preds = %9
  tail call void @_ZN5boost3log11v2_mt_posix19attribute_value_set14implementation17freeze_nodes_fromEPNS1_13attribute_set14implementationE(ptr noundef nonnull align 8 dereferenceable(320) %2, ptr noundef nonnull %11)
  store ptr null, ptr %10, align 8, !tbaa !28
  br label %_ZN5boost3log11v2_mt_posix19attribute_value_set14implementation5beginEv.exit

_ZN5boost3log11v2_mt_posix19attribute_value_set14implementation5beginEv.exit: ; preds = %9, %12
  %13 = getelementptr inbounds nuw i8, ptr %2, i64 40
  %14 = load ptr, ptr %13, align 8, !tbaa !6, !noalias !49
  %.fca.0.insert = insertvalue { ptr, ptr } poison, ptr %14, 0
  %.fca.1.insert = insertvalue { ptr, ptr } %.fca.0.insert, ptr %0, 1
  ret { ptr, ptr } %.fca.1.insert
}